target datalayout = "e-m:e-p270:32:32-p271:32:32-p272:64:64-i64:64-i128:128-f80:128-n8:16:32:64-S128"
target triple = "x86_64-unknown-linux-gnu"

%struct.ChardevBackendInfo = type { ptr }
%struct.ChardevBackendInfoList = type { ptr, ptr }

; Function Attrs: nounwind sspstrong uwtable
define internal void @qmp_prepend_backend(ptr noundef %name, ptr noundef %opaque) #0 {
entry:
  %name.addr = alloca ptr, align 8
  %opaque.addr = alloca ptr, align 8
  %list = alloca ptr, align 8
  %value = alloca ptr, align 8
  %_tmp = alloca ptr, align 8
  store ptr %name, ptr %name.addr, align 8
  store ptr %opaque, ptr %opaque.addr, align 8
  %0 = load ptr, ptr %opaque.addr, align 8
  store ptr %0, ptr %list, align 8
  %call = call noalias ptr @g_malloc0_n(i64 noundef 1, i64 noundef 8) #15
  store ptr %call, ptr %value, align 8
  %1 = load ptr, ptr %name.addr, align 8
  %call1 = call noalias ptr @g_strdup(ptr noundef %1)
  %2 = load ptr, ptr %value, align 8
  %name2 = getelementptr inbounds %struct.ChardevBackendInfo, ptr %2, i32 0, i32 0
  store ptr %call1, ptr %name2, align 8
  br label %do.body

do.body:                                          ; preds = %entry
  %call3 = call noalias ptr @g_malloc(i64 noundef 16) #16
  store ptr %call3, ptr %_tmp, align 8
  %3 = load ptr, ptr %value, align 8
  %4 = load ptr, ptr %_tmp, align 8
  %value4 = getelementptr inbounds %struct.ChardevBackendInfoList, ptr %4, i32 0, i32 1
  store ptr %3, ptr %value4, align 8
  %5 = load ptr, ptr %list, align 8
  %6 = load ptr, ptr %5, align 8
  %7 = load ptr, ptr %_tmp, align 8
  %next = getelementptr inbounds %struct.ChardevBackendInfoList, ptr %7, i32 0, i32 0
  store ptr %6, ptr %next, align 8
  %8 = load ptr, ptr %_tmp, align 8
  %9 = load ptr, ptr %list, align 8
  store ptr %8, ptr %9, align 8
  br label %do.end

do.end:                                           ; preds = %do.body
  ret void
}