; Function Attrs: nounwind sspstrong uwtable
define internal void @qmp_prepend_backend(ptr noundef %name, ptr noundef captures(none) %opaque) #0 {
entry:
  %call = tail call noalias dereferenceable_or_null(8) ptr @g_malloc0_n(i64 noundef 1, i64 noundef 8) #17
  %call1 = tail call noalias ptr @g_strdup(ptr noundef %name) #13
  store ptr %call1, ptr %call, align 8
  %call3 = tail call noalias dereferenceable_or_null(16) ptr @g_malloc(i64 noundef 16) #18
  %value4 = getelementptr inbounds nuw i8, ptr %call3, i64 8
  store ptr %call, ptr %value4, align 8
  %0 = load ptr, ptr %opaque, align 8
  store ptr %0, ptr %call3, align 8
  store ptr %call3, ptr %opaque, align 8
  ret void
}